; Function Attrs: nounwind uwtable
define dso_local range(i32 -1, 2) i32 @hostlist_delete_host(ptr noundef %0, ptr noundef %1) #0 {
  %.not = icmp eq ptr %0, null
  br i1 %.not, label %10, label %3

3:                                                ; preds = %2
  %4 = tail call i32 @hostlist_find_dims(ptr noundef nonnull %0, ptr noundef %1, i32 noundef 0)
  %5 = icmp sgt i32 %4, -1
  br i1 %5, label %6, label %8

6:                                                ; preds = %3
  %7 = tail call i32 @hostlist_delete_nth(ptr noundef nonnull %0, i32 noundef %4)
  br label %8

8:                                                ; preds = %6, %3
  %9 = zext i1 %5 to i32
  br label %10

10:                                               ; preds = %2, %8
  %.0 = phi i32 [ %9, %8 ], [ -1, %2 ]
  ret i32 %.0
}